; ModuleID = '56/981.c'
source_filename = "56/981.c"
target datalayout = "e-m:e-p270:32:32-p271:32:32-p272:64:64-i64:64-f80:128-n8:16:32:64-S128"
target triple = "x86_64-pc-linux-gnu"

@.str = private unnamed_addr constant [3 x i8] c"%d\00", align 1

; Function Attrs: noinline nounwind uwtable
define dso_local i32 @main() #0 {
  %1 = alloca i32, align 4
  %2 = alloca i32, align 4
  %3 = alloca i32, align 4
  %4 = alloca i32, align 4
  %5 = alloca i32, align 4
  %6 = alloca i32, align 4
  %7 = alloca i32, align 4
  %8 = alloca i32, align 4
  store i32 0, i32* %1, align 4
  %9 = call i32 (i8*, ...) @__isoc99_scanf(i8* getelementptr inbounds ([3 x i8], [3 x i8]* @.str, i64 0, i64 0), i32* %2)
  %10 = load i32, i32* %2, align 4
  %11 = sdiv i32 %10, 10000
  store i32 %11, i32* %4, align 4
  %12 = load i32, i32* %2, align 4
  %13 = load i32, i32* %4, align 4
  %14 = mul nsw i32 10000, %13
  %15 = sub nsw i32 %12, %14
  %16 = sdiv i32 %15, 1000
  store i32 %16, i32* %5, align 4
  %17 = load i32, i32* %2, align 4
  %18 = load i32, i32* %4, align 4
  %19 = mul nsw i32 10000, %18
  %20 = sub nsw i32 %17, %19
  %21 = load i32, i32* %5, align 4
  %22 = mul nsw i32 1000, %21
  %23 = sub nsw i32 %20, %22
  %24 = sdiv i32 %23, 100
  store i32 %24, i32* %6, align 4
  %25 = load i32, i32* %2, align 4
  %26 = load i32, i32* %4, align 4
  %27 = mul nsw i32 10000, %26
  %28 = sub nsw i32 %25, %27
  %29 = load i32, i32* %5, align 4
  %30 = mul nsw i32 1000, %29
  %31 = sub nsw i32 %28, %30
  %32 = load i32, i32* %6, align 4
  %33 = mul nsw i32 100, %32
  %34 = sub nsw i32 %31, %33
  %35 = sdiv i32 %34, 10
  store i32 %35, i32* %7, align 4
  %36 = load i32, i32* %2, align 4
  %37 = load i32, i32* %4, align 4
  %38 = mul nsw i32 10000, %37
  %39 = sub nsw i32 %36, %38
  %40 = load i32, i32* %5, align 4
  %41 = mul nsw i32 1000, %40
  %42 = sub nsw i32 %39, %41
  %43 = load i32, i32* %6, align 4
  %44 = mul nsw i32 100, %43
  %45 = sub nsw i32 %42, %44
  %46 = load i32, i32* %7, align 4
  %47 = mul nsw i32 10, %46
  %48 = sub nsw i32 %45, %47
  store i32 %48, i32* %8, align 4
  %49 = load i32, i32* %4, align 4
  %50 = icmp ne i32 %49, 0
  br i1 %50, label %51, label %80

51:                                               ; preds = %0
  %52 = load i32, i32* %5, align 4
  %53 = icmp ne i32 %52, 0
  br i1 %53, label %54, label %80

54:                                               ; preds = %51
  %55 = load i32, i32* %6, align 4
  %56 = icmp ne i32 %55, 0
  br i1 %56, label %57, label %80

57:                                               ; preds = %54
  %58 = load i32, i32* %7, align 4
  %59 = icmp ne i32 %58, 0
  br i1 %59, label %60, label %80

60:                                               ; preds = %57
  %61 = load i32, i32* %8, align 4
  %62 = icmp ne i32 %61, 0
  br i1 %62, label %63, label %80

63:                                               ; preds = %60
  %64 = load i32, i32* %8, align 4
  %65 = mul nsw i32 10000, %64
  %66 = load i32, i32* %7, align 4
  %67 = mul nsw i32 1000, %66
  %68 = add nsw i32 %65, %67
  %69 = load i32, i32* %6, align 4
  %70 = mul nsw i32 100, %69
  %71 = add nsw i32 %68, %70
  %72 = load i32, i32* %5, align 4
  %73 = mul nsw i32 10, %72
  %74 = add nsw i32 %71, %73
  %75 = load i32, i32* %4, align 4
  %76 = mul nsw i32 1, %75
  %77 = add nsw i32 %74, %76
  store i32 %77, i32* %3, align 4
  %78 = load i32, i32* %3, align 4
  %79 = call i32 (i8*, ...) @printf(i8* getelementptr inbounds ([3 x i8], [3 x i8]* @.str, i64 0, i64 0), i32 %78)
  br label %80

80:                                               ; preds = %63, %60, %57, %54, %51, %0
  %81 = load i32, i32* %4, align 4
  %82 = icmp eq i32 %81, 0
  br i1 %82, label %83, label %109

83:                                               ; preds = %80
  %84 = load i32, i32* %5, align 4
  %85 = icmp ne i32 %84, 0
  br i1 %85, label %86, label %109

86:                                               ; preds = %83
  %87 = load i32, i32* %6, align 4
  %88 = icmp ne i32 %87, 0
  br i1 %88, label %89, label %109

89:                                               ; preds = %86
  %90 = load i32, i32* %7, align 4
  %91 = icmp ne i32 %90, 0
  br i1 %91, label %92, label %109

92:                                               ; preds = %89
  %93 = load i32, i32* %8, align 4
  %94 = icmp ne i32 %93, 0
  br i1 %94, label %95, label %109

95:                                               ; preds = %92
  %96 = load i32, i32* %8, align 4
  %97 = mul nsw i32 1000, %96
  %98 = load i32, i32* %7, align 4
  %99 = mul nsw i32 100, %98
  %100 = add nsw i32 %97, %99
  %101 = load i32, i32* %6, align 4
  %102 = mul nsw i32 10, %101
  %103 = add nsw i32 %100, %102
  %104 = load i32, i32* %5, align 4
  %105 = mul nsw i32 1, %104
  %106 = add nsw i32 %103, %105
  store i32 %106, i32* %3, align 4
  %107 = load i32, i32* %3, align 4
  %108 = call i32 (i8*, ...) @printf(i8* getelementptr inbounds ([3 x i8], [3 x i8]* @.str, i64 0, i64 0), i32 %107)
  br label %109

109:                                              ; preds = %95, %92, %89, %86, %83, %80
  %110 = load i32, i32* %4, align 4
  %111 = icmp eq i32 %110, 0
  br i1 %111, label %112, label %135

112:                                              ; preds = %109
  %113 = load i32, i32* %5, align 4
  %114 = icmp eq i32 %113, 0
  br i1 %114, label %115, label %135

115:                                              ; preds = %112
  %116 = load i32, i32* %6, align 4
  %117 = icmp ne i32 %116, 0
  br i1 %117, label %118, label %135

118:                                              ; preds = %115
  %119 = load i32, i32* %7, align 4
  %120 = icmp ne i32 %119, 0
  br i1 %120, label %121, label %135

121:                                              ; preds = %118
  %122 = load i32, i32* %8, align 4
  %123 = icmp ne i32 %122, 0
  br i1 %123, label %124, label %135

124:                                              ; preds = %121
  %125 = load i32, i32* %8, align 4
  %126 = mul nsw i32 100, %125
  %127 = load i32, i32* %7, align 4
  %128 = mul nsw i32 10, %127
  %129 = add nsw i32 %126, %128
  %130 = load i32, i32* %6, align 4
  %131 = mul nsw i32 1, %130
  %132 = add nsw i32 %129, %131
  store i32 %132, i32* %3, align 4
  %133 = load i32, i32* %3, align 4
  %134 = call i32 (i8*, ...) @printf(i8* getelementptr inbounds ([3 x i8], [3 x i8]* @.str, i64 0, i64 0), i32 %133)
  br label %135

135:                                              ; preds = %124, %121, %118, %115, %112, %109
  %136 = load i32, i32* %4, align 4
  %137 = icmp eq i32 %136, 0
  br i1 %137, label %138, label %158

138:                                              ; preds = %135
  %139 = load i32, i32* %5, align 4
  %140 = icmp eq i32 %139, 0
  br i1 %140, label %141, label %158

141:                                              ; preds = %138
  %142 = load i32, i32* %6, align 4
  %143 = icmp eq i32 %142, 0
  br i1 %143, label %144, label %158

144:                                              ; preds = %141
  %145 = load i32, i32* %7, align 4
  %146 = icmp ne i32 %145, 0
  br i1 %146, label %147, label %158

147:                                              ; preds = %144
  %148 = load i32, i32* %8, align 4
  %149 = icmp ne i32 %148, 0
  br i1 %149, label %150, label %158

150:                                              ; preds = %147
  %151 = load i32, i32* %8, align 4
  %152 = mul nsw i32 10, %151
  %153 = load i32, i32* %7, align 4
  %154 = mul nsw i32 1, %153
  %155 = add nsw i32 %152, %154
  store i32 %155, i32* %3, align 4
  %156 = load i32, i32* %3, align 4
  %157 = call i32 (i8*, ...) @printf(i8* getelementptr inbounds ([3 x i8], [3 x i8]* @.str, i64 0, i64 0), i32 %156)
  br label %158

158:                                              ; preds = %150, %147, %144, %141, %138, %135
  %159 = load i32, i32* %4, align 4
  %160 = icmp eq i32 %159, 0
  br i1 %160, label %161, label %178

161:                                              ; preds = %158
  %162 = load i32, i32* %5, align 4
  %163 = icmp eq i32 %162, 0
  br i1 %163, label %164, label %178

164:                                              ; preds = %161
  %165 = load i32, i32* %6, align 4
  %166 = icmp eq i32 %165, 0
  br i1 %166, label %167, label %178

167:                                              ; preds = %164
  %168 = load i32, i32* %7, align 4
  %169 = icmp eq i32 %168, 0
  br i1 %169, label %170, label %178

170:                                              ; preds = %167
  %171 = load i32, i32* %8, align 4
  %172 = icmp ne i32 %171, 0
  br i1 %172, label %173, label %178

173:                                              ; preds = %170
  %174 = load i32, i32* %8, align 4
  %175 = mul nsw i32 1, %174
  store i32 %175, i32* %3, align 4
  %176 = load i32, i32* %3, align 4
  %177 = call i32 (i8*, ...) @printf(i8* getelementptr inbounds ([3 x i8], [3 x i8]* @.str, i64 0, i64 0), i32 %176)
  br label %178

178:                                              ; preds = %173, %170, %167, %164, %161, %158
  ret i32 0
}

declare dso_local i32 @__isoc99_scanf(i8*, ...) #1

declare dso_local i32 @printf(i8*, ...) #1


!llvm.module.flags = !{!0}
!llvm.ident = !{!1}

!0 = !{i32 1, !"wchar_size", i32 4}
!1 = !{!"clang version 10.0.0-4ubuntu1 "}
